; ModuleID = '4/26.c'
source_filename = "4/26.c"
target datalayout = "e-m:e-p270:32:32-p271:32:32-p272:64:64-i64:64-f80:128-n8:16:32:64-S128"
target triple = "x86_64-pc-linux-gnu"

@.str = private unnamed_addr constant [6 x i8] c"%d %d\00", align 1
@.str.1 = private unnamed_addr constant [3 x i8] c"%d\00", align 1
@.str.2 = private unnamed_addr constant [4 x i8] c"%d\0A\00", align 1

; Function Attrs: noinline nounwind uwtable
define dso_local i32 @main() #0 {
  %1 = alloca i32, align 4
  %2 = alloca i32, align 4
  %3 = alloca i32, align 4
  %4 = alloca i32, align 4
  %5 = alloca i32, align 4
  %6 = alloca i32, align 4
  %7 = alloca i32*, align 8
  store i32 0, i32* %1, align 4
  %8 = call noalias i8* @malloc(i64 400) #3
  %9 = bitcast i8* %8 to i32*
  store i32* %9, i32** %7, align 8
  %10 = call i32 (i8*, ...) @__isoc99_scanf(i8* getelementptr inbounds ([6 x i8], [6 x i8]* @.str, i64 0, i64 0), i32* %2, i32* %3)
  store i32 0, i32* %4, align 4
  br label %11

11:                                               ; preds = %35, %0
  %12 = load i32, i32* %4, align 4
  %13 = load i32, i32* %2, align 4
  %14 = icmp slt i32 %12, %13
  br i1 %14, label %15, label %38

15:                                               ; preds = %11
  store i32 0, i32* %5, align 4
  br label %16

16:                                               ; preds = %31, %15
  %17 = load i32, i32* %5, align 4
  %18 = load i32, i32* %3, align 4
  %19 = icmp slt i32 %17, %18
  br i1 %19, label %20, label %34

20:                                               ; preds = %16
  %21 = load i32*, i32** %7, align 8
  %22 = load i32, i32* %4, align 4
  %23 = load i32, i32* %3, align 4
  %24 = mul nsw i32 %22, %23
  %25 = sext i32 %24 to i64
  %26 = getelementptr inbounds i32, i32* %21, i64 %25
  %27 = load i32, i32* %5, align 4
  %28 = sext i32 %27 to i64
  %29 = getelementptr inbounds i32, i32* %26, i64 %28
  %30 = call i32 (i8*, ...) @__isoc99_scanf(i8* getelementptr inbounds ([3 x i8], [3 x i8]* @.str.1, i64 0, i64 0), i32* %29)
  br label %31

31:                                               ; preds = %20
  %32 = load i32, i32* %5, align 4
  %33 = add nsw i32 %32, 1
  store i32 %33, i32* %5, align 4
  br label %16

34:                                               ; preds = %16
  br label %35

35:                                               ; preds = %34
  %36 = load i32, i32* %4, align 4
  %37 = add nsw i32 %36, 1
  store i32 %37, i32* %4, align 4
  br label %11

38:                                               ; preds = %11
  store i32 0, i32* %5, align 4
  br label %39

39:                                               ; preds = %73, %38
  %40 = load i32, i32* %5, align 4
  %41 = load i32, i32* %3, align 4
  %42 = icmp slt i32 %40, %41
  br i1 %42, label %43, label %76

43:                                               ; preds = %39
  %44 = load i32, i32* %5, align 4
  store i32 %44, i32* %6, align 4
  store i32 0, i32* %4, align 4
  br label %45

45:                                               ; preds = %67, %43
  %46 = load i32, i32* %6, align 4
  %47 = icmp eq i32 %46, -1
  br i1 %47, label %52, label %48

48:                                               ; preds = %45
  %49 = load i32, i32* %4, align 4
  %50 = load i32, i32* %2, align 4
  %51 = icmp eq i32 %49, %50
  br label %52

52:                                               ; preds = %48, %45
  %53 = phi i1 [ true, %45 ], [ %51, %48 ]
  %54 = xor i1 %53, true
  br i1 %54, label %55, label %72

55:                                               ; preds = %52
  %56 = load i32*, i32** %7, align 8
  %57 = load i32, i32* %4, align 4
  %58 = load i32, i32* %3, align 4
  %59 = mul nsw i32 %57, %58
  %60 = sext i32 %59 to i64
  %61 = getelementptr inbounds i32, i32* %56, i64 %60
  %62 = load i32, i32* %6, align 4
  %63 = sext i32 %62 to i64
  %64 = getelementptr inbounds i32, i32* %61, i64 %63
  %65 = load i32, i32* %64, align 4
  %66 = call i32 (i8*, ...) @printf(i8* getelementptr inbounds ([4 x i8], [4 x i8]* @.str.2, i64 0, i64 0), i32 %65)
  br label %67

67:                                               ; preds = %55
  %68 = load i32, i32* %4, align 4
  %69 = add nsw i32 %68, 1
  store i32 %69, i32* %4, align 4
  %70 = load i32, i32* %6, align 4
  %71 = add nsw i32 %70, -1
  store i32 %71, i32* %6, align 4
  br label %45

72:                                               ; preds = %52
  br label %73

73:                                               ; preds = %72
  %74 = load i32, i32* %5, align 4
  %75 = add nsw i32 %74, 1
  store i32 %75, i32* %5, align 4
  br label %39

76:                                               ; preds = %39
  store i32 1, i32* %4, align 4
  br label %77

77:                                               ; preds = %113, %76
  %78 = load i32, i32* %4, align 4
  %79 = load i32, i32* %2, align 4
  %80 = icmp slt i32 %78, %79
  br i1 %80, label %81, label %116

81:                                               ; preds = %77
  %82 = load i32, i32* %4, align 4
  store i32 %82, i32* %6, align 4
  %83 = load i32, i32* %3, align 4
  %84 = sub nsw i32 %83, 1
  store i32 %84, i32* %5, align 4
  br label %85

85:                                               ; preds = %107, %81
  %86 = load i32, i32* %6, align 4
  %87 = load i32, i32* %2, align 4
  %88 = icmp eq i32 %86, %87
  br i1 %88, label %92, label %89

89:                                               ; preds = %85
  %90 = load i32, i32* %5, align 4
  %91 = icmp eq i32 %90, -1
  br label %92

92:                                               ; preds = %89, %85
  %93 = phi i1 [ true, %85 ], [ %91, %89 ]
  %94 = xor i1 %93, true
  br i1 %94, label %95, label %112

95:                                               ; preds = %92
  %96 = load i32*, i32** %7, align 8
  %97 = load i32, i32* %6, align 4
  %98 = load i32, i32* %3, align 4
  %99 = mul nsw i32 %97, %98
  %100 = sext i32 %99 to i64
  %101 = getelementptr inbounds i32, i32* %96, i64 %100
  %102 = load i32, i32* %5, align 4
  %103 = sext i32 %102 to i64
  %104 = getelementptr inbounds i32, i32* %101, i64 %103
  %105 = load i32, i32* %104, align 4
  %106 = call i32 (i8*, ...) @printf(i8* getelementptr inbounds ([4 x i8], [4 x i8]* @.str.2, i64 0, i64 0), i32 %105)
  br label %107

107:                                              ; preds = %95
  %108 = load i32, i32* %6, align 4
  %109 = add nsw i32 %108, 1
  store i32 %109, i32* %6, align 4
  %110 = load i32, i32* %5, align 4
  %111 = add nsw i32 %110, -1
  store i32 %111, i32* %5, align 4
  br label %85

112:                                              ; preds = %92
  br label %113

113:                                              ; preds = %112
  %114 = load i32, i32* %4, align 4
  %115 = add nsw i32 %114, 1
  store i32 %115, i32* %4, align 4
  br label %77

116:                                              ; preds = %77
  ret i32 0
}

; Function Attrs: nounwind
declare dso_local noalias i8* @malloc(i64) #1

declare dso_local i32 @__isoc99_scanf(i8*, ...) #2

declare dso_local i32 @printf(i8*, ...) #2


!llvm.module.flags = !{!0}
!llvm.ident = !{!1}

!0 = !{i32 1, !"wchar_size", i32 4}
!1 = !{!"clang version 10.0.0-4ubuntu1 "}
